; Function Attrs: mustprogress uwtable
define void @_Z17init_dfhist_stateP7t_statei(ptr nocapture noundef writeonly %0, i32 noundef %1) local_unnamed_addr #4 {
  %3 = icmp sgt i32 %1, 0
  %4 = getelementptr inbounds i8, ptr %0, i64 752
  br i1 %3, label %5, label %7

5:                                                ; preds = %2
  %6 = tail call noundef ptr @_Z11save_callocPKcS0_imm(ptr noundef nonnull @.str.52, ptr noundef nonnull @.str.22, i32 noundef 271, i64 noundef 1, i64 noundef 112)
  store ptr %6, ptr %4, align 8
  tail call void @_Z15init_df_historyP12df_history_ti(ptr noundef %6, i32 noundef %1)
  br label %8

7:                                                ; preds = %2
  store ptr null, ptr %4, align 8
  br label %8

8:                                                ; preds = %7, %5
  ret void
}